target datalayout = "e-m:e-p270:32:32-p271:32:32-p272:64:64-i64:64-i128:128-f80:128-n8:16:32:64-S128"
target triple = "x86_64-pc-linux-gnu"

@stderr = external global ptr, align 8
@.str.18 = private unnamed_addr constant [36 x i8] c"Failed to set socket non-blocking.\0A\00", align 1

; Function Attrs: mustprogress uwtable
define hidden noundef zeroext i1 @_Z20SocketSetNonBlockingib(i32 noundef %0, i1 noundef zeroext %1) #1 {
  %3 = alloca i1, align 1
  %4 = alloca i32, align 4
  %5 = alloca i8, align 1
  %6 = alloca i8, align 1
  %7 = alloca i32, align 4
  %8 = alloca i32, align 4
  store i32 %0, ptr %4, align 4, !tbaa !22
  %9 = zext i1 %1 to i8
  store i8 %9, ptr %5, align 1, !tbaa !25
  call void @llvm.lifetime.start.p0(i64 1, ptr %6) #16
  call void @llvm.lifetime.start.p0(i64 4, ptr %7) #16
  %10 = load i32, ptr %4, align 4, !tbaa !22
  %11 = call i32 (i32, i32, ...) @fcntl(i32 noundef %10, i32 noundef 3, i32 noundef 0)
  store i32 %11, ptr %7, align 4, !tbaa !22
  %12 = load i32, ptr %7, align 4, !tbaa !22
  %13 = icmp slt i32 %12, 0
  br i1 %13, label %14, label %15

14:                                               ; preds = %2
  store i1 false, ptr %3, align 1
  store i32 1, ptr %8, align 4
  br label %38

15:                                               ; preds = %2
  %16 = load i8, ptr %5, align 1, !tbaa !25, !range !42, !noundef !43
  %17 = trunc i8 %16 to i1
  br i1 %17, label %18, label %21

18:                                               ; preds = %15
  %19 = load i32, ptr %7, align 4, !tbaa !22
  %20 = or i32 %19, 2048
  store i32 %20, ptr %7, align 4, !tbaa !22
  br label %24

21:                                               ; preds = %15
  %22 = load i32, ptr %7, align 4, !tbaa !22
  %23 = and i32 %22, -2049
  store i32 %23, ptr %7, align 4, !tbaa !22
  br label %24

24:                                               ; preds = %21, %18
  %25 = load i32, ptr %4, align 4, !tbaa !22
  %26 = load i32, ptr %7, align 4, !tbaa !22
  %27 = call i32 (i32, i32, ...) @fcntl(i32 noundef %25, i32 noundef 4, i32 noundef %26)
  %28 = icmp eq i32 0, %27
  %29 = zext i1 %28 to i8
  store i8 %29, ptr %6, align 1, !tbaa !25
  %30 = load i8, ptr %6, align 1, !tbaa !25, !range !42, !noundef !43
  %31 = trunc i8 %30 to i1
  br i1 %31, label %35, label %32

32:                                               ; preds = %24
  %33 = load ptr, ptr @stderr, align 8, !tbaa !23
  %34 = call i32 (ptr, ptr, ...) @fprintf(ptr noundef %33, ptr noundef @.str.18) #16
  br label %35

35:                                               ; preds = %32, %24
  %36 = load i8, ptr %6, align 1, !tbaa !25, !range !42, !noundef !43
  %37 = trunc i8 %36 to i1
  store i1 %37, ptr %3, align 1
  store i32 1, ptr %8, align 4
  br label %38

38:                                               ; preds = %35, %14
  call void @llvm.lifetime.end.p0(i64 4, ptr %7) #16
  call void @llvm.lifetime.end.p0(i64 1, ptr %6) #16
  %39 = load i1, ptr %3, align 1
  ret i1 %39
}