; Function Attrs: mustprogress uwtable
define hidden noundef zeroext i1 @_Z20SocketSetNonBlockingib(i32 noundef %0, i1 noundef zeroext %1) local_unnamed_addr #1 {
  %3 = tail call i32 (i32, i32, ...) @fcntl(i32 noundef %0, i32 noundef 3, i32 noundef 0)
  %4 = icmp slt i32 %3, 0
  br i1 %4, label %13, label %5

5:                                                ; preds = %2
  %6 = or i32 %3, 2048
  %7 = and i32 %3, 2147481599
  %.0 = select i1 %1, i32 %6, i32 %7
  %8 = tail call i32 (i32, i32, ...) @fcntl(i32 noundef %0, i32 noundef 4, i32 noundef %.0)
  %9 = icmp eq i32 %8, 0
  br i1 %9, label %13, label %10

10:                                               ; preds = %5
  %11 = load ptr, ptr @stderr, align 8, !tbaa !29
  %12 = tail call i64 @fwrite(ptr nonnull @.str.18, i64 35, i64 1, ptr %11) #23
  br label %13

13:                                               ; preds = %5, %10, %2
  %.09 = phi i1 [ false, %2 ], [ false, %10 ], [ true, %5 ]
  ret i1 %.09
}